Certificate:
    Data:
        Version: 3 (0x2)
        Serial Number:
            80:78:21:04:95:16:c3:96
        Signature Algorithm: sha1WithRSAEncryption
        Issuer: C=US, ST=New York, L=New York, O=MITM Inc.
        Validity
            Not Before: Nov  5 20:36:27 2011 GMT
            Not After : Nov  4 20:36:27 2012 GMT
        Subject: C=US, ST=New York, L=New York, O=MITM, Inc., CN=*.facebook.com
        Subject Public Key Info:
            Public Key Algorithm: rsaEncryption
            RSA Public Key: (1024 bit)
                Modulus (1024 bit):
                    00:cc:c6:64:5d:24:2f:b8:24:ea:85:18:ad:72:ac:
                    5a:07:b2:8d:78:96:8e:eb:c8:2a:97:2c:5f:d2:62:
                    df:72:03:4f:79:50:03:de:4f:46:b4:5e:1e:23:74:
                    58:7b:ea:30:2f:63:cf:3e:e7:97:73:0a:9a:11:d5:
                    bb:c4:1e:16:35:29:7b:81:6f:9e:15:b0:73:e4:43:
                    7f:92:85:78:0c:73:c9:01:46:c8:0e:be:66:ee:8f:
                    90:7a:48:82:bd:7a:37:c9:73:8d:3b:c5:50:ed:fb:
                    d6:60:7a:72:d8:86:66:63:8e:c6:ed:72:dd:13:eb:
                    df:17:76:b2:f3:56:c8:31:f5
                Exponent: 65537 (0x10001)
        X509v3 extensions:
            X509v3 Basic Constraints: 
                CA:FALSE
            Netscape Comment: 
                OpenSSL Generated Certificate
            X509v3 Subject Key Identifier: 
                83:A3:94:25:49:E5:41:30:5F:B0:43:4D:11:A2:84:F1:EC:58:1F:34
            X509v3 Authority Key Identifier: 
                keyid:70:EC:5D:AA:88:26:17:F0:E6:B1:2B:AB:91:8B:87:B8:35:AC:A5:A7

    Signature Algorithm: sha1WithRSAEncryption
        b3:b0:ee:69:0b:c3:e0:3f:62:29:24:d0:c4:a4:ab:c5:ea:6e:
        a8:13:c2:6d:b4:eb:08:74:73:3d:03:cd:52:0a:f6:8c:77:30:
        97:78:2d:62:07:f8:9d:8c:cc:77:70:fa:af:d4:d2:e5:1f:90:
        98:b1:e3:5a:46:26:01:8f:a5:da:d7:95:04:03:80:f6:1c:26:
        54:b2:93:9c:c4:db:63:3a:37:29:29:8c:14:6e:ff:64:93:83:
        cf:3b:79:bd:7d:4d:4d:fb:dd:ec:b5:be:9c:70:1a:93:4a:9e:
        04:16:66:bd:8a:c7:e4:55:bb:c9:9f:c4:4a:b3:d7:92:aa:4e:
        3a:18
-----BEGIN CERTIFICATE-----
MIICoTCCAgqgAwIBAgIJAIB4IQSVFsOWMA0GCSqGSIb3DQEBBQUAMEcxCzAJBgNV
BAYTAlVTMREwDwYDVQQIEwhOZXcgWW9yazERMA8GA1UEBxMITmV3IFlvcmsxEjAQ
BgNVBAoTCU1JVE0gSW5jLjAeFw0xMTExMDUyMDM2MjdaFw0xMjExMDQyMDM2Mjda
MGExCzAJBgNVBAYTAlVTMREwDwYDVQQIEwhOZXcgWW9yazERMA8GA1UEBxMITmV3
IFlvcmsxEzARBgNVBAoTCk1JVE0sIEluYy4xFzAVBgNVBAMUDiouZmFjZWJvb2su
Y29tMIGfMA0GCSqGSIb3DQEBAQUAA4GNADCBiQKBgQDMxmRdJC+4JOqFGK1yrFoH
so14lo7ryCqXLF/SYt9yA095UAPeT0a0Xh4jdFh76jAvY88+55dzCpoR1bvEHhY1
KXuBb54VsHPkQ3+ShXgMc8kBRsgOvmbuj5B6SIK9ejfJc407xVDt+9ZgenLYhmZj
jsbtct0T698XdrLzVsgx9QIDAQABo3sweTAJBgNVHRMEAjAAMCwGCWCGSAGG+EIB
DQQfFh1PcGVuU1NMIEdlbmVyYXRlZCBDZXJ0aWZpY2F0ZTAdBgNVHQ4EFgQUg6OU
JUnlQTBfsENNEaKE8exYHzQwHwYDVR0jBBgwFoAUcOxdqogmF/DmsSurkYuHuDWs
pacwDQYJKoZIhvcNAQEFBQADgYEAs7DuaQvD4D9iKSTQxKSrxepuqBPCbbTrCHRz
PQPNUgr2jHcwl3gtYgf4nYzMd3D6r9TS5R+QmLHjWkYmAY+l2teVBAOA9hwmVLKT
nMTbYzo3KSmMFG7/ZJODzzt5vX1NTfvd7LW+nHAak0qeBBZmvYrH5FW7yZ/ESrPX
kqpOOhg=
-----END CERTIFICATE-----
